; ModuleID = '42/753.c'
source_filename = "42/753.c"
target datalayout = "e-m:e-p270:32:32-p271:32:32-p272:64:64-i64:64-f80:128-n8:16:32:64-S128"
target triple = "x86_64-pc-linux-gnu"

@.str = private unnamed_addr constant [3 x i8] c"%d\00", align 1
@.str.1 = private unnamed_addr constant [4 x i8] c"%d \00", align 1

; Function Attrs: noinline nounwind uwtable
define dso_local i32 @main() #0 {
  %1 = alloca i32, align 4
  %2 = alloca i32, align 4
  %3 = alloca i32, align 4
  %4 = alloca i32*, align 8
  %5 = alloca i32*, align 8
  %6 = alloca i32*, align 8
  %7 = alloca i32, align 4
  store i32 0, i32* %1, align 4
  %8 = call i32 (i8*, ...) @__isoc99_scanf(i8* getelementptr inbounds ([3 x i8], [3 x i8]* @.str, i64 0, i64 0), i32* %2)
  %9 = load i32, i32* %2, align 4
  store i32 %9, i32* %7, align 4
  %10 = load i32, i32* %2, align 4
  %11 = add nsw i32 %10, 1
  %12 = sext i32 %11 to i64
  %13 = call noalias i8* @calloc(i64 %12, i64 4) #3
  %14 = bitcast i8* %13 to i32*
  store i32* %14, i32** %4, align 8
  %15 = load i32*, i32** %4, align 8
  store i32* %15, i32** %5, align 8
  br label %16

16:                                               ; preds = %26, %0
  %17 = load i32*, i32** %4, align 8
  %18 = load i32*, i32** %5, align 8
  %19 = load i32, i32* %2, align 4
  %20 = sext i32 %19 to i64
  %21 = getelementptr inbounds i32, i32* %18, i64 %20
  %22 = icmp ult i32* %17, %21
  br i1 %22, label %23, label %29

23:                                               ; preds = %16
  %24 = load i32*, i32** %4, align 8
  %25 = call i32 (i8*, ...) @__isoc99_scanf(i8* getelementptr inbounds ([3 x i8], [3 x i8]* @.str, i64 0, i64 0), i32* %24)
  br label %26

26:                                               ; preds = %23
  %27 = load i32*, i32** %4, align 8
  %28 = getelementptr inbounds i32, i32* %27, i32 1
  store i32* %28, i32** %4, align 8
  br label %16

29:                                               ; preds = %16
  %30 = call i32 (i8*, ...) @__isoc99_scanf(i8* getelementptr inbounds ([3 x i8], [3 x i8]* @.str, i64 0, i64 0), i32* %3)
  %31 = load i32*, i32** %5, align 8
  store i32* %31, i32** %4, align 8
  br label %32

32:                                               ; preds = %75, %29
  %33 = load i32*, i32** %4, align 8
  %34 = load i32*, i32** %5, align 8
  %35 = load i32, i32* %7, align 4
  %36 = sext i32 %35 to i64
  %37 = getelementptr inbounds i32, i32* %34, i64 %36
  %38 = icmp ult i32* %33, %37
  br i1 %38, label %39, label %78

39:                                               ; preds = %32
  br label %40

40:                                               ; preds = %73, %39
  %41 = load i32*, i32** %4, align 8
  %42 = load i32, i32* %41, align 4
  %43 = load i32, i32* %3, align 4
  %44 = icmp eq i32 %42, %43
  br i1 %44, label %45, label %52

45:                                               ; preds = %40
  %46 = load i32*, i32** %4, align 8
  %47 = load i32*, i32** %5, align 8
  %48 = load i32, i32* %7, align 4
  %49 = sext i32 %48 to i64
  %50 = getelementptr inbounds i32, i32* %47, i64 %49
  %51 = icmp ult i32* %46, %50
  br label %52

52:                                               ; preds = %45, %40
  %53 = phi i1 [ false, %40 ], [ %51, %45 ]
  br i1 %53, label %54, label %74

54:                                               ; preds = %52
  %55 = load i32, i32* %7, align 4
  %56 = add nsw i32 %55, -1
  store i32 %56, i32* %7, align 4
  %57 = load i32*, i32** %4, align 8
  store i32* %57, i32** %6, align 8
  br label %58

58:                                               ; preds = %70, %54
  %59 = load i32*, i32** %6, align 8
  %60 = load i32*, i32** %5, align 8
  %61 = load i32, i32* %7, align 4
  %62 = sext i32 %61 to i64
  %63 = getelementptr inbounds i32, i32* %60, i64 %62
  %64 = icmp ult i32* %59, %63
  br i1 %64, label %65, label %73

65:                                               ; preds = %58
  %66 = load i32*, i32** %6, align 8
  %67 = getelementptr inbounds i32, i32* %66, i64 1
  %68 = load i32, i32* %67, align 4
  %69 = load i32*, i32** %6, align 8
  store i32 %68, i32* %69, align 4
  br label %70

70:                                               ; preds = %65
  %71 = load i32*, i32** %6, align 8
  %72 = getelementptr inbounds i32, i32* %71, i32 1
  store i32* %72, i32** %6, align 8
  br label %58

73:                                               ; preds = %58
  br label %40

74:                                               ; preds = %52
  br label %75

75:                                               ; preds = %74
  %76 = load i32*, i32** %4, align 8
  %77 = getelementptr inbounds i32, i32* %76, i32 1
  store i32* %77, i32** %4, align 8
  br label %32

78:                                               ; preds = %32
  %79 = load i32*, i32** %5, align 8
  store i32* %79, i32** %4, align 8
  br label %80

80:                                               ; preds = %92, %78
  %81 = load i32*, i32** %4, align 8
  %82 = load i32*, i32** %5, align 8
  %83 = load i32, i32* %7, align 4
  %84 = sext i32 %83 to i64
  %85 = getelementptr inbounds i32, i32* %82, i64 %84
  %86 = getelementptr inbounds i32, i32* %85, i64 -1
  %87 = icmp ult i32* %81, %86
  br i1 %87, label %88, label %95

88:                                               ; preds = %80
  %89 = load i32*, i32** %4, align 8
  %90 = load i32, i32* %89, align 4
  %91 = call i32 (i8*, ...) @printf(i8* getelementptr inbounds ([4 x i8], [4 x i8]* @.str.1, i64 0, i64 0), i32 %90)
  br label %92

92:                                               ; preds = %88
  %93 = load i32*, i32** %4, align 8
  %94 = getelementptr inbounds i32, i32* %93, i32 1
  store i32* %94, i32** %4, align 8
  br label %80

95:                                               ; preds = %80
  %96 = load i32*, i32** %4, align 8
  %97 = load i32, i32* %96, align 4
  %98 = call i32 (i8*, ...) @printf(i8* getelementptr inbounds ([3 x i8], [3 x i8]* @.str, i64 0, i64 0), i32 %97)
  ret i32 0
}

declare dso_local i32 @__isoc99_scanf(i8*, ...) #1

; Function Attrs: nounwind
declare dso_local noalias i8* @calloc(i64, i64) #2

declare dso_local i32 @printf(i8*, ...) #1


!llvm.module.flags = !{!0}
!llvm.ident = !{!1}

!0 = !{i32 1, !"wchar_size", i32 4}
!1 = !{!"clang version 10.0.0-4ubuntu1 "}
